target datalayout = "e-m:e-p270:32:32-p271:32:32-p272:64:64-i64:64-i128:128-f80:128-n8:16:32:64-S128"
target triple = "x86_64-pc-linux-gnu"

%struct.cli_htu32 = type { ptr, i64, i64, i64 }

; Function Attrs: nounwind uwtable
define internal i64 @nearest_power(i64 noundef %0) #0 {
  %2 = alloca i64, align 8
  %3 = alloca i64, align 8
  %4 = alloca i64, align 8
  store i64 %0, ptr %3, align 8
  store i64 64, ptr %4, align 8
  br label %5

5:                                                ; preds = %16, %1
  %6 = load i64, ptr %4, align 8
  %7 = load i64, ptr %3, align 8
  %8 = icmp ult i64 %6, %7
  br i1 %8, label %9, label %17

9:                                                ; preds = %5
  %10 = load i64, ptr %4, align 8
  %11 = shl i64 %10, 1
  store i64 %11, ptr %4, align 8
  %12 = load i64, ptr %4, align 8
  %13 = icmp eq i64 %12, 0
  br i1 %13, label %14, label %16

14:                                               ; preds = %9
  %15 = load i64, ptr %3, align 8
  store i64 %15, ptr %2, align 8
  br label %19

16:                                               ; preds = %9
  br label %5

17:                                               ; preds = %5
  %18 = load i64, ptr %4, align 8
  store i64 %18, ptr %2, align 8
  br label %19

19:                                               ; preds = %17, %14
  %20 = load i64, ptr %2, align 8
  ret i64 %20
}

; Function Attrs: nounwind uwtable
define i32 @cli_htu32_init(ptr noundef %0, i64 noundef %1, ptr noundef %2) #0 {
  %4 = alloca i32, align 4
  %5 = alloca ptr, align 8
  %6 = alloca i64, align 8
  %7 = alloca ptr, align 8
  store ptr %0, ptr %5, align 8
  store i64 %1, ptr %6, align 8
  store ptr %2, ptr %7, align 8
  %8 = load ptr, ptr %5, align 8
  %9 = icmp ne ptr %8, null
  br i1 %9, label %11, label %10

10:                                               ; preds = %3
  store i32 2, ptr %4, align 4
  br label %35

11:                                               ; preds = %3
  %12 = load i64, ptr %6, align 8
  %13 = call i64 @nearest_power(i64 noundef %12)
  store i64 %13, ptr %6, align 8
  %14 = load ptr, ptr %7, align 8
  %15 = load i64, ptr %6, align 8
  %16 = call ptr @mpool_calloc(ptr noundef %14, i64 noundef %15, i64 noundef 16)
  %17 = load ptr, ptr %5, align 8
  %18 = getelementptr inbounds %struct.cli_htu32, ptr %17, i32 0, i32 0
  store ptr %16, ptr %18, align 8
  %19 = load ptr, ptr %5, align 8
  %20 = getelementptr inbounds %struct.cli_htu32, ptr %19, i32 0, i32 0
  %21 = load ptr, ptr %20, align 8
  %22 = icmp ne ptr %21, null
  br i1 %22, label %24, label %23

23:                                               ; preds = %11
  store i32 20, ptr %4, align 4
  br label %35

24:                                               ; preds = %11
  %25 = load i64, ptr %6, align 8
  %26 = load ptr, ptr %5, align 8
  %27 = getelementptr inbounds %struct.cli_htu32, ptr %26, i32 0, i32 1
  store i64 %25, ptr %27, align 8
  %28 = load ptr, ptr %5, align 8
  %29 = getelementptr inbounds %struct.cli_htu32, ptr %28, i32 0, i32 2
  store i64 0, ptr %29, align 8
  %30 = load i64, ptr %6, align 8
  %31 = mul i64 8, %30
  %32 = udiv i64 %31, 10
  %33 = load ptr, ptr %5, align 8
  %34 = getelementptr inbounds %struct.cli_htu32, ptr %33, i32 0, i32 3
  store i64 %32, ptr %34, align 8
  store i32 0, ptr %4, align 4
  br label %35

35:                                               ; preds = %24, %23, %10
  %36 = load i32, ptr %4, align 4
  ret i32 %36
}