; Function Attrs: nounwind uwtable
define noundef i32 @cli_htu32_init(ptr noundef writeonly %0, i64 noundef %1, ptr noundef %2) local_unnamed_addr #0 {
  %.not = icmp eq ptr %0, null
  br i1 %.not, label %15, label %.preheader

.preheader:                                       ; preds = %3, %5
  %.0.i = phi i64 [ %6, %5 ], [ 64, %3 ]
  %4 = icmp ult i64 %.0.i, %1
  br i1 %4, label %5, label %nearest_power.exit

5:                                                ; preds = %.preheader
  %6 = shl i64 %.0.i, 1
  %7 = icmp eq i64 %6, 0
  br i1 %7, label %nearest_power.exit, label %.preheader

nearest_power.exit:                               ; preds = %.preheader, %5
  %.07.i = phi i64 [ %1, %5 ], [ %.0.i, %.preheader ]
  %8 = tail call ptr @mpool_calloc(ptr noundef %2, i64 noundef %.07.i, i64 noundef 16) #18
  store ptr %8, ptr %0, align 8
  %.not12 = icmp eq ptr %8, null
  br i1 %.not12, label %15, label %9

9:                                                ; preds = %nearest_power.exit
  %10 = getelementptr inbounds i8, ptr %0, i64 8
  store i64 %.07.i, ptr %10, align 8
  %11 = getelementptr inbounds i8, ptr %0, i64 16
  store i64 0, ptr %11, align 8
  %12 = shl i64 %.07.i, 3
  %13 = udiv i64 %12, 10
  %14 = getelementptr inbounds i8, ptr %0, i64 24
  store i64 %13, ptr %14, align 8
  br label %15

15:                                               ; preds = %nearest_power.exit, %3, %9
  %.0 = phi i32 [ 0, %9 ], [ 2, %3 ], [ 20, %nearest_power.exit ]
  ret i32 %.0
}